target datalayout = "e-m:e-p270:32:32-p271:32:32-p272:64:64-i64:64-i128:128-f80:128-n8:16:32:64-S128"
target triple = "x86_64-pc-linux-gnu"

; Function Attrs: null_pointer_is_valid sspstrong uwtable
define internal i32 @get_websocket_frame_length(ptr noundef %0, ptr noundef %1, i32 noundef %2, ptr noundef %3) #0 {
  %5 = alloca i32, align 4
  %6 = alloca ptr, align 8
  %7 = alloca ptr, align 8
  %8 = alloca i32, align 4
  %9 = alloca ptr, align 8
  %10 = alloca i32, align 4
  %11 = alloca i32, align 4
  %12 = alloca i8, align 1
  %13 = alloca i32, align 4
  store ptr %0, ptr %6, align 8
  store ptr %1, ptr %7, align 8
  store i32 %2, ptr %8, align 4
  store ptr %3, ptr %9, align 8
  call void @llvm.lifetime.start.p0(i64 4, ptr %10) #10
  call void @llvm.lifetime.start.p0(i64 4, ptr %11) #10
  call void @llvm.lifetime.start.p0(i64 1, ptr %12) #10
  store i32 2, ptr %10, align 4
  %14 = load ptr, ptr %7, align 8
  %15 = load i32, ptr %8, align 4
  %16 = add i32 %15, 1
  %17 = call zeroext i8 @tvb_get_uint8(ptr noundef %14, i32 noundef %16)
  %18 = zext i8 %17 to i32
  %19 = and i32 %18, 128
  %20 = icmp ne i32 %19, 0
  %21 = zext i1 %20 to i8
  store i8 %21, ptr %12, align 1
  %22 = load ptr, ptr %7, align 8
  %23 = load i32, ptr %8, align 4
  %24 = add i32 %23, 1
  %25 = call zeroext i8 @tvb_get_uint8(ptr noundef %22, i32 noundef %24)
  %26 = zext i8 %25 to i32
  %27 = and i32 %26, 127
  store i32 %27, ptr %11, align 4
  %28 = load i32, ptr %8, align 4
  %29 = add i32 %28, 2
  store i32 %29, ptr %8, align 4
  %30 = load i32, ptr %11, align 4
  %31 = icmp eq i32 %30, 126
  br i1 %31, label %32, label %45

32:                                               ; preds = %4
  %33 = load ptr, ptr %7, align 8
  %34 = load i32, ptr %8, align 4
  %35 = call i32 @tvb_reported_length_remaining(ptr noundef %33, i32 noundef %34)
  %36 = icmp slt i32 %35, 2
  br i1 %36, label %37, label %38

37:                                               ; preds = %32
  store i32 0, ptr %5, align 4
  store i32 1, ptr %13, align 4
  br label %73

38:                                               ; preds = %32
  %39 = load ptr, ptr %7, align 8
  %40 = load i32, ptr %8, align 4
  %41 = call zeroext i16 @tvb_get_ntohs(ptr noundef %39, i32 noundef %40)
  %42 = zext i16 %41 to i32
  store i32 %42, ptr %11, align 4
  %43 = load i32, ptr %10, align 4
  %44 = add i32 %43, 2
  store i32 %44, ptr %10, align 4
  br label %62

45:                                               ; preds = %4
  %46 = load i32, ptr %11, align 4
  %47 = icmp eq i32 %46, 127
  br i1 %47, label %48, label %61

48:                                               ; preds = %45
  %49 = load ptr, ptr %7, align 8
  %50 = load i32, ptr %8, align 4
  %51 = call i32 @tvb_reported_length_remaining(ptr noundef %49, i32 noundef %50)
  %52 = icmp slt i32 %51, 8
  br i1 %52, label %53, label %54

53:                                               ; preds = %48
  store i32 0, ptr %5, align 4
  store i32 1, ptr %13, align 4
  br label %73

54:                                               ; preds = %48
  %55 = load ptr, ptr %7, align 8
  %56 = load i32, ptr %8, align 4
  %57 = call i64 @tvb_get_ntoh64(ptr noundef %55, i32 noundef %56)
  %58 = trunc i64 %57 to i32
  store i32 %58, ptr %11, align 4
  %59 = load i32, ptr %10, align 4
  %60 = add i32 %59, 8
  store i32 %60, ptr %10, align 4
  br label %61

61:                                               ; preds = %54, %45
  br label %62

62:                                               ; preds = %61, %38
  %63 = load i8, ptr %12, align 1, !range !6, !noundef !7
  %64 = trunc i8 %63 to i1
  br i1 %64, label %65, label %68

65:                                               ; preds = %62
  %66 = load i32, ptr %10, align 4
  %67 = add i32 %66, 4
  store i32 %67, ptr %10, align 4
  br label %68

68:                                               ; preds = %65, %62
  %69 = load i32, ptr %11, align 4
  %70 = load i32, ptr %10, align 4
  %71 = add i32 %70, %69
  store i32 %71, ptr %10, align 4
  %72 = load i32, ptr %10, align 4
  store i32 %72, ptr %5, align 4
  store i32 1, ptr %13, align 4
  br label %73

73:                                               ; preds = %68, %53, %37
  call void @llvm.lifetime.end.p0(i64 1, ptr %12) #10
  call void @llvm.lifetime.end.p0(i64 4, ptr %11) #10
  call void @llvm.lifetime.end.p0(i64 4, ptr %10) #10
  %74 = load i32, ptr %5, align 4
  ret i32 %74
}