; Function Attrs: null_pointer_is_valid sspstrong uwtable
define internal i32 @get_websocket_frame_length(ptr readnone captures(none) %0, ptr noundef %1, i32 noundef %2, ptr readnone captures(none) %3) #0 {
  %5 = add i32 %2, 1
  %6 = tail call zeroext i8 @tvb_get_uint8(ptr noundef %1, i32 noundef %5)
  %7 = tail call zeroext i8 @tvb_get_uint8(ptr noundef %1, i32 noundef %5)
  %8 = and i8 %7, 127
  %9 = add i32 %2, 2
  %10 = icmp eq i8 %8, 126
  br i1 %10, label %11, label %17

11:                                               ; preds = %4
  %12 = tail call i32 @tvb_reported_length_remaining(ptr noundef %1, i32 noundef %9)
  %13 = icmp slt i32 %12, 2
  br i1 %13, label %29, label %14

14:                                               ; preds = %11
  %15 = tail call zeroext i16 @tvb_get_ntohs(ptr noundef %1, i32 noundef %9)
  %16 = zext i16 %15 to i32
  br label %26

17:                                               ; preds = %4
  %18 = zext nneg i8 %8 to i32
  %19 = icmp eq i8 %8, 127
  br i1 %19, label %20, label %26

20:                                               ; preds = %17
  %21 = tail call i32 @tvb_reported_length_remaining(ptr noundef %1, i32 noundef %9)
  %22 = icmp slt i32 %21, 8
  br i1 %22, label %29, label %23

23:                                               ; preds = %20
  %24 = tail call i64 @tvb_get_ntoh64(ptr noundef %1, i32 noundef %9)
  %25 = trunc i64 %24 to i32
  br label %26

26:                                               ; preds = %17, %23, %14
  %.023 = phi i32 [ 4, %14 ], [ 10, %23 ], [ 2, %17 ]
  %.022 = phi i32 [ %16, %14 ], [ %25, %23 ], [ %18, %17 ]
  %27 = add nuw nsw i32 %.023, 4
  %.not25 = icmp slt i8 %6, 0
  %spec.select = select i1 %.not25, i32 %27, i32 %.023
  %28 = add i32 %spec.select, %.022
  br label %29

29:                                               ; preds = %20, %11, %26
  %.0 = phi i32 [ %28, %26 ], [ 0, %11 ], [ 0, %20 ]
  ret i32 %.0
}